; Function Attrs: mustprogress uwtable
define noundef i32 @_ZN6colvar21collect_cvc_gradientsEv(ptr noundef nonnull align 8 dereferenceable(4624) %0) local_unnamed_addr #2 align 2 {
  %2 = getelementptr inbounds i8, ptr %0, i64 368
  %3 = load ptr, ptr %2, align 8
  %4 = getelementptr inbounds i8, ptr %3, i64 97
  %5 = load i8, ptr %4, align 1
  %6 = trunc i8 %5 to i1
  br i1 %6, label %.preheader9, label %.loopexit

.preheader9:                                      ; preds = %1
  %7 = getelementptr inbounds i8, ptr %0, i64 4600
  %8 = getelementptr inbounds i8, ptr %0, i64 4608
  %9 = load ptr, ptr %8, align 8
  %10 = load ptr, ptr %7, align 8
  %.not = icmp eq ptr %9, %10
  br i1 %.not, label %.preheader, label %.lr.ph

.preheader:                                       ; preds = %.lr.ph, %.preheader9
  %11 = getelementptr inbounds i8, ptr %0, i64 4432
  %12 = getelementptr inbounds i8, ptr %0, i64 4440
  %13 = load ptr, ptr %12, align 8
  %14 = load ptr, ptr %11, align 8
  %.not13 = icmp eq ptr %13, %14
  br i1 %.not13, label %.loopexit, label %.lr.ph12

.lr.ph12:                                         ; preds = %.preheader
  %15 = getelementptr inbounds i8, ptr %0, i64 4576
  br label %28

.lr.ph:                                           ; preds = %.preheader9, %.lr.ph
  %16 = phi ptr [ %22, %.lr.ph ], [ %10, %.preheader9 ]
  %17 = phi i64 [ %20, %.lr.ph ], [ 0, %.preheader9 ]
  %.010 = phi i32 [ %19, %.lr.ph ], [ 0, %.preheader9 ]
  %18 = getelementptr inbounds %"class.colvarmodule::rvector", ptr %16, i64 %17
  tail call void @llvm.memset.p0.i64(ptr noundef nonnull align 8 dereferenceable(24) %18, i8 0, i64 24, i1 false)
  %19 = add i32 %.010, 1
  %20 = zext i32 %19 to i64
  %21 = load ptr, ptr %8, align 8
  %22 = load ptr, ptr %7, align 8
  %23 = ptrtoint ptr %21 to i64
  %24 = ptrtoint ptr %22 to i64
  %25 = sub i64 %23, %24
  %26 = sdiv exact i64 %25, 24
  %27 = icmp ugt i64 %26, %20
  br i1 %27, label %.lr.ph, label %.preheader, !llvm.loop !136

28:                                               ; preds = %.lr.ph12, %42
  %29 = phi ptr [ %14, %.lr.ph12 ], [ %43, %42 ]
  %30 = phi ptr [ %13, %.lr.ph12 ], [ %44, %42 ]
  %.0711 = phi i64 [ 0, %.lr.ph12 ], [ %45, %42 ]
  %31 = getelementptr inbounds ptr, ptr %29, i64 %.0711
  %32 = load ptr, ptr %31, align 8
  %33 = getelementptr inbounds i8, ptr %32, i64 368
  %34 = load ptr, ptr %33, align 8
  %35 = getelementptr inbounds i8, ptr %34, i64 1
  %36 = load i8, ptr %35, align 1
  %37 = trunc i8 %36 to i1
  br i1 %37, label %38, label %42

38:                                               ; preds = %28
  %39 = load ptr, ptr %32, align 8
  %40 = getelementptr inbounds i8, ptr %39, i64 144
  %41 = load ptr, ptr %40, align 8
  tail call void %41(ptr noundef nonnull align 8 dereferenceable(1648) %32, ptr noundef nonnull align 8 dereferenceable(24) %15, ptr noundef nonnull align 8 dereferenceable(24) %7)
  %.pre = load ptr, ptr %12, align 8
  %.pre14 = load ptr, ptr %11, align 8
  br label %42

42:                                               ; preds = %28, %38
  %43 = phi ptr [ %29, %28 ], [ %.pre14, %38 ]
  %44 = phi ptr [ %30, %28 ], [ %.pre, %38 ]
  %45 = add nuw i64 %.0711, 1
  %46 = ptrtoint ptr %44 to i64
  %47 = ptrtoint ptr %43 to i64
  %48 = sub i64 %46, %47
  %49 = ashr exact i64 %48, 3
  %50 = icmp ult i64 %45, %49
  br i1 %50, label %28, label %.loopexit, !llvm.loop !137

.loopexit:                                        ; preds = %42, %.preheader, %1
  ret i32 0
}